target datalayout = "e-m:e-p270:32:32-p271:32:32-p272:64:64-i64:64-i128:128-f80:128-n8:16:32:64-S128"
target triple = "x86_64-unknown-linux-gnu"

; Function Attrs: mustprogress uwtable
define noundef double @_ZNK8QuantLib29YoYOptionletVolatilitySurface13totalVarianceERKNS_4DateEdRKNS_6PeriodEb(ptr noundef nonnull align 8 dereferenceable(112) %this, ptr noundef nonnull align 8 dereferenceable(8) %maturityDate, double noundef %strike, ptr noundef nonnull align 4 dereferenceable(8) %obsLag, i1 noundef zeroext %extrapolate) unnamed_addr #2 align 2 {
entry:
  %this.addr = alloca ptr, align 8
  %maturityDate.addr = alloca ptr, align 8
  %strike.addr = alloca double, align 8
  %obsLag.addr = alloca ptr, align 8
  %extrapolate.addr = alloca i8, align 1
  %vol = alloca double, align 8
  %t = alloca double, align 8
  store ptr %this, ptr %this.addr, align 8, !tbaa !3
  store ptr %maturityDate, ptr %maturityDate.addr, align 8, !tbaa !3
  store double %strike, ptr %strike.addr, align 8, !tbaa !38
  store ptr %obsLag, ptr %obsLag.addr, align 8, !tbaa !3
  %storedv = zext i1 %extrapolate to i8
  store i8 %storedv, ptr %extrapolate.addr, align 1, !tbaa !35
  %this1 = load ptr, ptr %this.addr, align 8
  call void @llvm.lifetime.start.p0(i64 8, ptr %vol) #12
  %0 = load ptr, ptr %maturityDate.addr, align 8, !tbaa !3
  %1 = load double, ptr %strike.addr, align 8, !tbaa !38
  %2 = load ptr, ptr %obsLag.addr, align 8, !tbaa !3
  %3 = load i8, ptr %extrapolate.addr, align 1, !tbaa !35, !range !46, !noundef !47
  %loadedv = trunc i8 %3 to i1
  %call = call noundef double @_ZNK8QuantLib29YoYOptionletVolatilitySurface10volatilityERKNS_4DateEdRKNS_6PeriodEb(ptr noundef nonnull align 8 dereferenceable(112) %this1, ptr noundef nonnull align 8 dereferenceable(8) %0, double noundef %1, ptr noundef nonnull align 4 dereferenceable(8) %2, i1 noundef zeroext %loadedv)
  store double %call, ptr %vol, align 8, !tbaa !38
  call void @llvm.lifetime.start.p0(i64 8, ptr %t) #12
  %4 = load ptr, ptr %maturityDate.addr, align 8, !tbaa !3
  %5 = load ptr, ptr %obsLag.addr, align 8, !tbaa !3
  %vtable = load ptr, ptr %this1, align 8, !tbaa !12
  %vfn = getelementptr inbounds ptr, ptr %vtable, i64 20
  %6 = load ptr, ptr %vfn, align 8
  %call2 = call noundef double %6(ptr noundef nonnull align 8 dereferenceable(112) %this1, ptr noundef nonnull align 8 dereferenceable(8) %4, ptr noundef nonnull align 4 dereferenceable(8) %5)
  store double %call2, ptr %t, align 8, !tbaa !38
  %7 = load double, ptr %vol, align 8, !tbaa !38
  %8 = load double, ptr %vol, align 8, !tbaa !38
  %mul = fmul double %7, %8
  %9 = load double, ptr %t, align 8, !tbaa !38
  %mul3 = fmul double %mul, %9
  call void @llvm.lifetime.end.p0(i64 8, ptr %t) #12
  call void @llvm.lifetime.end.p0(i64 8, ptr %vol) #12
  ret double %mul3
}